; Function Attrs: nounwind uwtable
define hidden noundef zeroext i1 @je_tsd_tcache_enabled_data_init(ptr noundef initializes((0, 1)) %0) local_unnamed_addr #0 {
  %2 = load i8, ptr @je_opt_tcache, align 1, !tbaa !20, !range !22, !noundef !23
  store i8 %2, ptr %0, align 1, !tbaa !20
  tail call void @je_tsd_slow_update(ptr noundef nonnull %0) #14
  %3 = load i8, ptr @je_opt_tcache, align 1, !tbaa !20, !range !22, !noundef !23
  %4 = trunc nuw i8 %3 to i1
  br i1 %4, label %5, label %7

5:                                                ; preds = %1
  %6 = tail call zeroext i1 @je_tsd_tcache_data_init(ptr noundef nonnull %0)
  br label %7

7:                                                ; preds = %5, %1
  ret i1 false
}